; Function Attrs: nounwind uwtable
define hidden i32 @ir_proto_4(ptr noundef %0, i8 noundef zeroext %1, i32 noundef %2, i32 noundef %3, i32 noundef %4, i32 noundef %5, i32 noundef %6) local_unnamed_addr #0 {
  %8 = alloca %struct._ir_proto_t, align 1
  store i8 %1, ptr %8, align 1
  %9 = trunc i32 %2 to i8
  %10 = getelementptr inbounds i8, ptr %8, i64 1
  store i8 %9, ptr %10, align 1
  %11 = getelementptr inbounds i8, ptr %8, i64 2
  store i8 4, ptr %11, align 1
  %12 = trunc i32 %3 to i8
  %13 = getelementptr inbounds i8, ptr %8, i64 3
  store i8 %12, ptr %13, align 1
  %14 = trunc i32 %4 to i8
  %15 = getelementptr inbounds i8, ptr %8, i64 4
  store i8 %14, ptr %15, align 1
  %16 = trunc i32 %5 to i8
  %17 = getelementptr inbounds i8, ptr %8, i64 5
  store i8 %16, ptr %17, align 1
  %18 = trunc i32 %6 to i8
  %19 = getelementptr inbounds i8, ptr %8, i64 6
  store i8 %18, ptr %19, align 1
  %20 = getelementptr inbounds i8, ptr %0, i64 336
  %21 = load ptr, ptr %20, align 8
  %.not.i = icmp eq ptr %21, null
  br i1 %.not.i, label %22, label %ir_strl.exit

22:                                               ; preds = %7
  tail call void @ir_strtab_init(ptr noundef nonnull %20, i32 noundef 64, i32 noundef 4096) #20
  br label %ir_strl.exit

ir_strl.exit:                                     ; preds = %7, %22
  %23 = getelementptr inbounds i8, ptr %0, i64 352
  %24 = load i32, ptr %23, align 8
  %25 = add i32 %24, 1
  %26 = call i32 @ir_strtab_lookup(ptr noundef nonnull %20, ptr noundef nonnull %8, i32 noundef 7, i32 noundef %25) #20
  ret i32 %26
}